target datalayout = "e-m:e-p270:32:32-p271:32:32-p272:64:64-i64:64-i128:128-f80:128-n8:16:32:64-S128"
target triple = "x86_64-pc-linux-gnu"

%"class.clang::driver::Action" = type { ptr, i32, i32, %"class.llvm::SmallVector", i8, i32, i32, ptr, ptr }
%"class.llvm::SmallVector" = type { %"class.llvm::SmallVectorImpl", %"struct.llvm::SmallVectorStorage" }
%"class.llvm::SmallVectorImpl" = type { %"class.llvm::SmallVectorTemplateBase" }
%"class.llvm::SmallVectorTemplateBase" = type { %"class.llvm::SmallVectorTemplateCommon" }
%"class.llvm::SmallVectorTemplateCommon" = type { %"class.llvm::SmallVectorBase" }
%"class.llvm::SmallVectorBase" = type { ptr, i32, i32 }
%"struct.llvm::SmallVectorStorage" = type { [24 x i8] }
%"class.clang::driver::OffloadUnbundlingJobAction" = type { %"class.clang::driver::JobAction", %"class.llvm::SmallVector.19" }
%"class.clang::driver::JobAction" = type { %"class.clang::driver::Action" }
%"class.llvm::SmallVector.19" = type { %"class.llvm::SmallVectorImpl.20", %"struct.llvm::SmallVectorStorage.23" }
%"class.llvm::SmallVectorImpl.20" = type { %"class.llvm::SmallVectorTemplateBase.21" }
%"class.llvm::SmallVectorTemplateBase.21" = type { %"class.llvm::SmallVectorTemplateCommon.22" }
%"class.llvm::SmallVectorTemplateCommon.22" = type { %"class.llvm::SmallVectorBase" }
%"struct.llvm::SmallVectorStorage.23" = type { [192 x i8] }

@_ZTVN5clang6driver9JobActionE = unnamed_addr constant { [5 x ptr] } { [5 x ptr] [ptr null, ptr null, ptr @_ZN5clang6driver9JobActionD2Ev, ptr @_ZN5clang6driver9JobActionD0Ev, ptr @_ZN5clang6driver9JobAction6anchorEv] }, align 8
@_ZTVN5clang6driver26OffloadUnbundlingJobActionE = unnamed_addr constant { [5 x ptr] } { [5 x ptr] [ptr null, ptr null, ptr @_ZN5clang6driver26OffloadUnbundlingJobActionD2Ev, ptr @_ZN5clang6driver26OffloadUnbundlingJobActionD0Ev, ptr @_ZN5clang6driver26OffloadUnbundlingJobAction6anchorEv] }, align 8

; Function Attrs: mustprogress nounwind uwtable
define linkonce_odr hidden noundef ptr @_ZNK4llvm25SmallVectorTemplateCommonIN5clang6driver26OffloadUnbundlingJobAction19DependentActionInfoEvE10getFirstElEv(ptr noundef nonnull align 8 dereferenceable(16) %0) #0 comdat align 2 {
  %2 = alloca ptr, align 8
  store ptr %0, ptr %2, align 8
  %3 = load ptr, ptr %2, align 8
  %4 = getelementptr inbounds i8, ptr %3, i64 16
  ret ptr %4
}

; Function Attrs: mustprogress nounwind uwtable
define linkonce_odr hidden void @_ZN4llvm25SmallVectorTemplateCommonIN5clang6driver26OffloadUnbundlingJobAction19DependentActionInfoEvEC2Em(ptr noundef nonnull align 8 dereferenceable(16) %0, i64 noundef %1) unnamed_addr #0 comdat align 2 {
  %3 = alloca ptr, align 8
  %4 = alloca i64, align 8
  store ptr %0, ptr %3, align 8
  store i64 %1, ptr %4, align 8
  %5 = load ptr, ptr %3, align 8
  %6 = call noundef ptr @_ZNK4llvm25SmallVectorTemplateCommonIN5clang6driver26OffloadUnbundlingJobAction19DependentActionInfoEvE10getFirstElEv(ptr noundef nonnull align 8 dereferenceable(16) %5)
  %7 = load i64, ptr %4, align 8
  call void @_ZN4llvm15SmallVectorBaseIjEC2EPvm(ptr noundef nonnull align 8 dereferenceable(16) %5, ptr noundef %6, i64 noundef %7)
  ret void
}

; Function Attrs: mustprogress nounwind uwtable
define linkonce_odr hidden void @_ZN4llvm23SmallVectorTemplateBaseIN5clang6driver26OffloadUnbundlingJobAction19DependentActionInfoELb1EEC2Em(ptr noundef nonnull align 8 dereferenceable(16) %0, i64 noundef %1) unnamed_addr #0 comdat align 2 {
  %3 = alloca ptr, align 8
  %4 = alloca i64, align 8
  store ptr %0, ptr %3, align 8
  store i64 %1, ptr %4, align 8
  %5 = load ptr, ptr %3, align 8
  %6 = load i64, ptr %4, align 8
  call void @_ZN4llvm25SmallVectorTemplateCommonIN5clang6driver26OffloadUnbundlingJobAction19DependentActionInfoEvEC2Em(ptr noundef nonnull align 8 dereferenceable(16) %5, i64 noundef %6)
  ret void
}

; Function Attrs: mustprogress nounwind uwtable
define linkonce_odr hidden void @_ZN4llvm15SmallVectorImplIN5clang6driver26OffloadUnbundlingJobAction19DependentActionInfoEEC2Ej(ptr noundef nonnull align 8 dereferenceable(16) %0, i32 noundef %1) unnamed_addr #0 comdat align 2 {
  %3 = alloca ptr, align 8
  %4 = alloca i32, align 4
  store ptr %0, ptr %3, align 8
  store i32 %1, ptr %4, align 4
  %5 = load ptr, ptr %3, align 8
  %6 = load i32, ptr %4, align 4
  %7 = zext i32 %6 to i64
  call void @_ZN4llvm23SmallVectorTemplateBaseIN5clang6driver26OffloadUnbundlingJobAction19DependentActionInfoELb1EEC2Em(ptr noundef nonnull align 8 dereferenceable(16) %5, i64 noundef %7)
  ret void
}

; Function Attrs: mustprogress nounwind uwtable
define linkonce_odr hidden void @_ZN4llvm11SmallVectorIN5clang6driver26OffloadUnbundlingJobAction19DependentActionInfoELj6EEC2Ev(ptr noundef nonnull align 8 dereferenceable(208) %0) unnamed_addr #0 comdat align 2 {
  %2 = alloca ptr, align 8
  store ptr %0, ptr %2, align 8
  %3 = load ptr, ptr %2, align 8
  call void @_ZN4llvm15SmallVectorImplIN5clang6driver26OffloadUnbundlingJobAction19DependentActionInfoEEC2Ej(ptr noundef nonnull align 8 dereferenceable(16) %3, i32 noundef 6)
  ret void
}

; Function Attrs: mustprogress nounwind uwtable
define dso_local void @_ZN5clang6driver9JobActionC2ENS0_6Action11ActionClassEPS2_NS0_5types2IDE(ptr noundef nonnull align 8 dereferenceable(88) %0, i32 noundef %1, ptr noundef %2, i32 noundef %3) unnamed_addr #0 align 2 {
  %5 = alloca ptr, align 8
  %6 = alloca i32, align 4
  %7 = alloca ptr, align 8
  %8 = alloca i32, align 4
  store ptr %0, ptr %5, align 8
  store i32 %1, ptr %6, align 4
  store ptr %2, ptr %7, align 8
  store i32 %3, ptr %8, align 4
  %9 = load ptr, ptr %5, align 8
  %10 = load i32, ptr %6, align 4
  %11 = load ptr, ptr %7, align 8
  %12 = load i32, ptr %8, align 4
  call void @_ZN5clang6driver6ActionC2ENS1_11ActionClassEPS1_NS0_5types2IDE(ptr noundef nonnull align 8 dereferenceable(88) %9, i32 noundef %10, ptr noundef %11, i32 noundef %12)
  store ptr getelementptr inbounds inrange(-16, 24) ({ [5 x ptr] }, ptr @_ZTVN5clang6driver9JobActionE, i32 0, i32 0, i32 2), ptr %9, align 8
  ret void
}

; Function Attrs: mustprogress nounwind uwtable
define linkonce_odr hidden noundef i32 @_ZNK5clang6driver6Action7getTypeEv(ptr noundef nonnull align 8 dereferenceable(88) %0) #0 comdat align 2 {
  %2 = alloca ptr, align 8
  store ptr %0, ptr %2, align 8
  %3 = load ptr, ptr %2, align 8
  %4 = getelementptr inbounds nuw %"class.clang::driver::Action", ptr %3, i32 0, i32 2
  %5 = load i32, ptr %4, align 4
  ret i32 %5
}

; Function Attrs: mustprogress nounwind uwtable
define dso_local void @_ZN5clang6driver26OffloadUnbundlingJobActionC2EPNS0_6ActionE(ptr noundef nonnull align 8 dereferenceable(296) %0, ptr noundef %1) unnamed_addr #0 align 2 {
  %3 = alloca ptr, align 8
  %4 = alloca ptr, align 8
  store ptr %0, ptr %3, align 8
  store ptr %1, ptr %4, align 8
  %5 = load ptr, ptr %3, align 8
  %6 = load ptr, ptr %4, align 8
  %7 = load ptr, ptr %4, align 8
  %8 = call noundef i32 @_ZNK5clang6driver6Action7getTypeEv(ptr noundef nonnull align 8 dereferenceable(88) %7)
  call void @_ZN5clang6driver9JobActionC2ENS0_6Action11ActionClassEPS2_NS0_5types2IDE(ptr noundef nonnull align 8 dereferenceable(88) %5, i32 noundef 18, ptr noundef %6, i32 noundef %8)
  store ptr getelementptr inbounds inrange(-16, 24) ({ [5 x ptr] }, ptr @_ZTVN5clang6driver26OffloadUnbundlingJobActionE, i32 0, i32 0, i32 2), ptr %5, align 8
  %9 = getelementptr inbounds nuw %"class.clang::driver::OffloadUnbundlingJobAction", ptr %5, i32 0, i32 1
  call void @_ZN4llvm11SmallVectorIN5clang6driver26OffloadUnbundlingJobAction19DependentActionInfoELj6EEC2Ev(ptr noundef nonnull align 8 dereferenceable(208) %9)
  ret void
}