; Function Attrs: mustprogress nounwind uwtable
define dso_local void @_ZN5clang6driver26OffloadUnbundlingJobActionC2EPNS0_6ActionE(ptr noundef nonnull align 8 dereferenceable(296) %0, ptr noundef %1) unnamed_addr #0 align 2 {
  %3 = getelementptr inbounds nuw i8, ptr %1, i64 12
  %4 = load i32, ptr %3, align 4
  tail call void @_ZN5clang6driver6ActionC2ENS1_11ActionClassEPS1_NS0_5types2IDE(ptr noundef nonnull align 8 dereferenceable(88) %0, i32 noundef 18, ptr noundef %1, i32 noundef %4)
  store ptr getelementptr inbounds inrange(-16, 24) (i8, ptr @_ZTVN5clang6driver26OffloadUnbundlingJobActionE, i64 16), ptr %0, align 8
  %5 = getelementptr inbounds nuw i8, ptr %0, i64 88
  %6 = getelementptr inbounds i8, ptr %0, i64 104
  tail call void @_ZN4llvm15SmallVectorBaseIjEC2EPvm(ptr noundef nonnull align 8 dereferenceable(16) %5, ptr noundef nonnull %6, i64 noundef 6) #11
  ret void
}